; Function Attrs: mustprogress nofree norecurse nosync nounwind willreturn memory(read, inaccessiblemem: none) uwtable
define ptr @ssl_get_ciphers_by_id(ptr noundef readonly captures(address_is_null) %0) local_unnamed_addr #10 {
  %.not = icmp eq ptr %0, null
  br i1 %.not, label %11, label %2

2:                                                ; preds = %1
  %3 = getelementptr inbounds nuw i8, ptr %0, i64 1384
  %4 = load ptr, ptr %3, align 8, !tbaa !339
  %.not11 = icmp eq ptr %4, null
  br i1 %.not11, label %5, label %12

5:                                                ; preds = %2
  %6 = getelementptr inbounds nuw i8, ptr %0, i64 8
  %7 = load ptr, ptr %6, align 8, !tbaa !426
  %.not12 = icmp eq ptr %7, null
  br i1 %.not12, label %11, label %8

8:                                                ; preds = %5
  %9 = getelementptr inbounds nuw i8, ptr %7, i64 24
  %10 = load ptr, ptr %9, align 8, !tbaa !293
  %.not13 = icmp eq ptr %10, null
  br i1 %.not13, label %11, label %12

11:                                               ; preds = %8, %5, %1
  br label %12

12:                                               ; preds = %8, %2, %11
  %.0 = phi ptr [ null, %11 ], [ %4, %2 ], [ %10, %8 ]
  ret ptr %.0
}